target datalayout = "e-m:e-p270:32:32-p271:32:32-p272:64:64-i64:64-i128:128-f80:128-n8:16:32:64-S128"
target triple = "x86_64-pc-linux-gnu"

%"struct.pkpy::SStream" = type <{ %"struct.pkpy::pod_vector", i32, [4 x i8] }>
%"struct.pkpy::pod_vector" = type { i32, i32, ptr }

@.str.18 = private unnamed_addr constant [4 x i8] c"0x0\00", align 1
@.str.19 = private unnamed_addr constant [3 x i8] c"0x\00", align 1
@.str.20 = private unnamed_addr constant [2 x i8] c"-\00", align 1

; Function Attrs: mustprogress nounwind uwtable
define linkonce_odr void @_ZN4pkpy10pod_vectorIcLi2EE7reserveEi(ptr noundef nonnull align 8 dereferenceable(16) %0, i32 noundef %1) #5 comdat align 2 {
  %3 = alloca ptr, align 8
  %4 = alloca i32, align 4
  %5 = alloca ptr, align 8
  store ptr %0, ptr %3, align 8
  store i32 %1, ptr %4, align 4
  %6 = load ptr, ptr %3, align 8
  %7 = load i32, ptr %4, align 4
  %8 = getelementptr inbounds %"struct.pkpy::pod_vector", ptr %6, i32 0, i32 1
  %9 = load i32, ptr %8, align 4
  %10 = icmp sle i32 %7, %9
  br i1 %10, label %11, label %12

11:                                               ; preds = %2
  br label %34

12:                                               ; preds = %2
  %13 = load i32, ptr %4, align 4
  %14 = getelementptr inbounds %"struct.pkpy::pod_vector", ptr %6, i32 0, i32 1
  store i32 %13, ptr %14, align 4
  %15 = getelementptr inbounds %"struct.pkpy::pod_vector", ptr %6, i32 0, i32 2
  %16 = load ptr, ptr %15, align 8
  store ptr %16, ptr %5, align 8
  %17 = getelementptr inbounds %"struct.pkpy::pod_vector", ptr %6, i32 0, i32 1
  %18 = load i32, ptr %17, align 4
  %19 = mul nsw i32 %18, 1
  %20 = sext i32 %19 to i64
  %21 = call noundef ptr @_ZN4pkpy12pool64_allocEm(i64 noundef %20) #3
  %22 = getelementptr inbounds %"struct.pkpy::pod_vector", ptr %6, i32 0, i32 2
  store ptr %21, ptr %22, align 8
  %23 = load ptr, ptr %5, align 8
  %24 = icmp ne ptr %23, null
  br i1 %24, label %25, label %34

25:                                               ; preds = %12
  %26 = getelementptr inbounds %"struct.pkpy::pod_vector", ptr %6, i32 0, i32 2
  %27 = load ptr, ptr %26, align 8
  %28 = load ptr, ptr %5, align 8
  %29 = getelementptr inbounds %"struct.pkpy::pod_vector", ptr %6, i32 0, i32 0
  %30 = load i32, ptr %29, align 8
  %31 = mul nsw i32 1, %30
  %32 = sext i32 %31 to i64
  call void @llvm.memcpy.p0.p0.i64(ptr align 1 %27, ptr align 1 %28, i64 %32, i1 false)
  %33 = load ptr, ptr %5, align 8
  call void @_ZN4pkpy14pool64_deallocEPv(ptr noundef %33) #3
  br label %34

34:                                               ; preds = %25, %12, %11
  ret void
}

; Function Attrs: mustprogress nounwind uwtable
define linkonce_odr void @_ZN4pkpy10pod_vectorIcLi2EE9push_backIRKcEEvOT_(ptr noundef nonnull align 8 dereferenceable(16) %0, ptr noundef nonnull align 1 dereferenceable(1) %1) #5 comdat align 2 {
  %3 = alloca ptr, align 8
  %4 = alloca ptr, align 8
  store ptr %0, ptr %3, align 8
  store ptr %1, ptr %4, align 8
  %5 = load ptr, ptr %3, align 8
  %6 = getelementptr inbounds %"struct.pkpy::pod_vector", ptr %5, i32 0, i32 0
  %7 = load i32, ptr %6, align 8
  %8 = getelementptr inbounds %"struct.pkpy::pod_vector", ptr %5, i32 0, i32 1
  %9 = load i32, ptr %8, align 4
  %10 = icmp eq i32 %7, %9
  br i1 %10, label %11, label %15

11:                                               ; preds = %2
  %12 = getelementptr inbounds %"struct.pkpy::pod_vector", ptr %5, i32 0, i32 1
  %13 = load i32, ptr %12, align 4
  %14 = mul nsw i32 %13, 2
  call void @_ZN4pkpy10pod_vectorIcLi2EE7reserveEi(ptr noundef nonnull align 8 dereferenceable(16) %5, i32 noundef %14)
  br label %15

15:                                               ; preds = %11, %2
  %16 = load ptr, ptr %4, align 8
  %17 = load i8, ptr %16, align 1
  %18 = getelementptr inbounds %"struct.pkpy::pod_vector", ptr %5, i32 0, i32 2
  %19 = load ptr, ptr %18, align 8
  %20 = getelementptr inbounds %"struct.pkpy::pod_vector", ptr %5, i32 0, i32 0
  %21 = load i32, ptr %20, align 8
  %22 = add nsw i32 %21, 1
  store i32 %22, ptr %20, align 8
  %23 = sext i32 %21 to i64
  %24 = getelementptr inbounds i8, ptr %19, i64 %23
  store i8 %17, ptr %24, align 1
  ret void
}

; Function Attrs: mustprogress uwtable
define linkonce_odr void @_ZN4pkpy10pod_vectorIcLi2EE6extendEPKcS3_(ptr noundef nonnull align 8 dereferenceable(16) %0, ptr noundef %1, ptr noundef %2) #4 comdat align 2 {
  %4 = alloca ptr, align 8
  %5 = alloca ptr, align 8
  %6 = alloca ptr, align 8
  %7 = alloca ptr, align 8
  store ptr %0, ptr %4, align 8
  store ptr %1, ptr %5, align 8
  store ptr %2, ptr %6, align 8
  %8 = load ptr, ptr %4, align 8
  %9 = load ptr, ptr %5, align 8
  store ptr %9, ptr %7, align 8
  br label %10

10:                                               ; preds = %16, %3
  %11 = load ptr, ptr %7, align 8
  %12 = load ptr, ptr %6, align 8
  %13 = icmp ne ptr %11, %12
  br i1 %13, label %14, label %19

14:                                               ; preds = %10
  %15 = load ptr, ptr %7, align 8
  call void @_ZN4pkpy10pod_vectorIcLi2EE9push_backIRKcEEvOT_(ptr noundef nonnull align 8 dereferenceable(16) %8, ptr noundef nonnull align 1 dereferenceable(1) %15)
  br label %16

16:                                               ; preds = %14
  %17 = load ptr, ptr %7, align 8
  %18 = getelementptr inbounds i8, ptr %17, i32 1
  store ptr %18, ptr %7, align 8
  br label %10, !llvm.loop !28

19:                                               ; preds = %10
  ret void
}

; Function Attrs: mustprogress uwtable
define noundef nonnull align 8 dereferenceable(20) ptr @_ZN4pkpy7SStreamlsEPKc(ptr noundef nonnull align 8 dereferenceable(20) %0, ptr noundef %1) #4 align 2 {
  %3 = alloca ptr, align 8
  %4 = alloca ptr, align 8
  store ptr %0, ptr %3, align 8
  store ptr %1, ptr %4, align 8
  %5 = load ptr, ptr %3, align 8
  %6 = getelementptr inbounds %"struct.pkpy::SStream", ptr %5, i32 0, i32 0
  %7 = load ptr, ptr %4, align 8
  %8 = load ptr, ptr %4, align 8
  %9 = load ptr, ptr %4, align 8
  %10 = call i64 @strlen(ptr noundef %9) #15
  %11 = getelementptr inbounds i8, ptr %8, i64 %10
  call void @_ZN4pkpy10pod_vectorIcLi2EE6extendEPKcS3_(ptr noundef nonnull align 8 dereferenceable(16) %6, ptr noundef %7, ptr noundef %11)
  ret ptr %5
}

; Function Attrs: mustprogress uwtable
define void @_ZN4pkpy7SStream9write_hexEl(ptr noundef nonnull align 8 dereferenceable(20) %0, i64 noundef %1) #4 align 2 {
  %3 = alloca ptr, align 8
  %4 = alloca i64, align 8
  %5 = alloca i8, align 1
  %6 = alloca i32, align 4
  %7 = alloca i8, align 1
  store ptr %0, ptr %3, align 8
  store i64 %1, ptr %4, align 8
  %8 = load ptr, ptr %3, align 8
  %9 = load i64, ptr %4, align 8
  %10 = icmp eq i64 %9, 0
  br i1 %10, label %11, label %13

11:                                               ; preds = %2
  %12 = call noundef nonnull align 8 dereferenceable(20) ptr @_ZN4pkpy7SStreamlsEPKc(ptr noundef nonnull align 8 dereferenceable(20) %8, ptr noundef @.str.18)
  br label %43

13:                                               ; preds = %2
  %14 = load i64, ptr %4, align 8
  %15 = icmp slt i64 %14, 0
  br i1 %15, label %16, label %20

16:                                               ; preds = %13
  %17 = call noundef nonnull align 8 dereferenceable(20) ptr @_ZN4pkpy7SStreamlsEPKc(ptr noundef nonnull align 8 dereferenceable(20) %8, ptr noundef @.str.20)
  %18 = load i64, ptr %4, align 8
  %19 = sub nsw i64 0, %18
  store i64 %19, ptr %4, align 8
  br label %20

20:                                               ; preds = %16, %13
  %21 = call noundef nonnull align 8 dereferenceable(20) ptr @_ZN4pkpy7SStreamlsEPKc(ptr noundef nonnull align 8 dereferenceable(20) %8, ptr noundef @.str.19)
  store i8 1, ptr %5, align 1
  store i32 56, ptr %6, align 4
  br label %22

22:                                               ; preds = %40, %20
  %23 = load i32, ptr %6, align 4
  %24 = icmp sge i32 %23, 0
  br i1 %24, label %25, label %43

25:                                               ; preds = %22
  %26 = load i64, ptr %4, align 8
  %27 = load i32, ptr %6, align 4
  %28 = zext i32 %27 to i64
  %29 = ashr i64 %26, %28
  %30 = and i64 %29, 255
  %31 = trunc i64 %30 to i8
  store i8 %31, ptr %7, align 1
  %32 = load i8, ptr %7, align 1
  %33 = load i8, ptr %5, align 1
  %34 = trunc i8 %33 to i1
  call void @_ZN4pkpy7SStream9write_hexEhb(ptr noundef nonnull align 8 dereferenceable(20) %8, i8 noundef zeroext %32, i1 noundef zeroext %34)
  %35 = load i8, ptr %7, align 1
  %36 = zext i8 %35 to i32
  %37 = icmp ne i32 %36, 0
  br i1 %37, label %38, label %39

38:                                               ; preds = %25
  store i8 0, ptr %5, align 1
  br label %39

39:                                               ; preds = %38, %25
  br label %40

40:                                               ; preds = %39
  %41 = load i32, ptr %6, align 4
  %42 = sub nsw i32 %41, 8
  store i32 %42, ptr %6, align 4
  br label %22, !llvm.loop !31

43:                                               ; preds = %22, %11
  ret void
}