; Function Attrs: mustprogress nounwind uwtable
define void @_ZN4pkpy7SStream9write_hexEl(ptr nocapture noundef nonnull align 8 dereferenceable(20) %0, i64 noundef %1) local_unnamed_addr #4 align 2 {
  %3 = icmp eq i64 %1, 0
  br i1 %3, label %.lr.ph.i.i, label %24

.lr.ph.i.i:                                       ; preds = %2
  %4 = getelementptr inbounds i8, ptr %0, i64 4
  %5 = getelementptr inbounds i8, ptr %0, i64 8
  br label %6

6:                                                ; preds = %_ZN4pkpy10pod_vectorIcLi2EE9push_backIRKcEEvOT_.exit.i.i, %.lr.ph.i.i
  %.07.i.i.idx = phi i64 [ 0, %.lr.ph.i.i ], [ %.07.i.i.add, %_ZN4pkpy10pod_vectorIcLi2EE9push_backIRKcEEvOT_.exit.i.i ]
  %.07.i.i.ptr = getelementptr inbounds i8, ptr @.str.18, i64 %.07.i.i.idx
  %7 = load i32, ptr %0, align 8
  %8 = load i32, ptr %4, align 4
  %9 = icmp eq i32 %7, %8
  br i1 %9, label %10, label %_ZN4pkpy10pod_vectorIcLi2EE9push_backIRKcEEvOT_.exit.i.i

10:                                               ; preds = %6
  %11 = shl nsw i32 %7, 1
  %.not.i.i.i.i = icmp slt i32 %7, %11
  br i1 %.not.i.i.i.i, label %12, label %_ZN4pkpy10pod_vectorIcLi2EE9push_backIRKcEEvOT_.exit.i.i

12:                                               ; preds = %10
  store i32 %11, ptr %4, align 4
  %13 = load ptr, ptr %5, align 8
  %14 = sext i32 %11 to i64
  %15 = tail call noundef ptr @_ZN4pkpy12pool64_allocEm(i64 noundef %14) #23
  store ptr %15, ptr %5, align 8
  %.not6.i.i.i.i = icmp eq ptr %13, null
  %.pre2.i.i.i = load i32, ptr %0, align 8
  br i1 %.not6.i.i.i.i, label %_ZN4pkpy10pod_vectorIcLi2EE9push_backIRKcEEvOT_.exit.i.i, label %16

16:                                               ; preds = %12
  %17 = sext i32 %.pre2.i.i.i to i64
  tail call void @llvm.memcpy.p0.p0.i64(ptr align 1 %15, ptr nonnull align 1 %13, i64 %17, i1 false)
  tail call void @_ZN4pkpy14pool64_deallocEPv(ptr noundef nonnull %13) #23
  %.pre.i.i.i = load i32, ptr %0, align 8
  br label %_ZN4pkpy10pod_vectorIcLi2EE9push_backIRKcEEvOT_.exit.i.i

_ZN4pkpy10pod_vectorIcLi2EE9push_backIRKcEEvOT_.exit.i.i: ; preds = %16, %12, %10, %6
  %18 = phi i32 [ %.pre.i.i.i, %16 ], [ %.pre2.i.i.i, %12 ], [ %7, %10 ], [ %7, %6 ]
  %19 = load i8, ptr %.07.i.i.ptr, align 1
  %20 = load ptr, ptr %5, align 8
  %21 = add nsw i32 %18, 1
  store i32 %21, ptr %0, align 8
  %22 = sext i32 %18 to i64
  %23 = getelementptr inbounds i8, ptr %20, i64 %22
  store i8 %19, ptr %23, align 1
  %.07.i.i.add = add nuw nsw i64 %.07.i.i.idx, 1
  %.not.i.i = icmp eq i64 %.07.i.i.add, 3
  br i1 %.not.i.i, label %_ZN4pkpy7SStreamlsEPKc.exit, label %6, !llvm.loop !51

24:                                               ; preds = %2
  %25 = icmp slt i64 %1, 0
  br i1 %25, label %.lr.ph.i.i14, label %.lr.ph.i.i24

.lr.ph.i.i14:                                     ; preds = %24
  %26 = getelementptr inbounds i8, ptr %0, i64 4
  %27 = getelementptr inbounds i8, ptr %0, i64 8
  %28 = load i32, ptr %0, align 8
  %29 = load i32, ptr %26, align 4
  %30 = icmp eq i32 %28, %29
  br i1 %30, label %31, label %_ZN4pkpy10pod_vectorIcLi2EE9push_backIRKcEEvOT_.exit.i.i16

31:                                               ; preds = %.lr.ph.i.i14
  %32 = shl nsw i32 %28, 1
  %.not.i.i.i.i18 = icmp slt i32 %28, %32
  br i1 %.not.i.i.i.i18, label %33, label %_ZN4pkpy10pod_vectorIcLi2EE9push_backIRKcEEvOT_.exit.i.i16

33:                                               ; preds = %31
  store i32 %32, ptr %26, align 4
  %34 = load ptr, ptr %27, align 8
  %35 = sext i32 %32 to i64
  %36 = tail call noundef ptr @_ZN4pkpy12pool64_allocEm(i64 noundef %35) #23
  store ptr %36, ptr %27, align 8
  %.not6.i.i.i.i19 = icmp eq ptr %34, null
  %.pre2.i.i.i20 = load i32, ptr %0, align 8
  br i1 %.not6.i.i.i.i19, label %_ZN4pkpy10pod_vectorIcLi2EE9push_backIRKcEEvOT_.exit.i.i16, label %37

37:                                               ; preds = %33
  %38 = sext i32 %.pre2.i.i.i20 to i64
  tail call void @llvm.memcpy.p0.p0.i64(ptr align 1 %36, ptr nonnull align 1 %34, i64 %38, i1 false)
  tail call void @_ZN4pkpy14pool64_deallocEPv(ptr noundef nonnull %34) #23
  %.pre.i.i.i21 = load i32, ptr %0, align 8
  br label %_ZN4pkpy10pod_vectorIcLi2EE9push_backIRKcEEvOT_.exit.i.i16

_ZN4pkpy10pod_vectorIcLi2EE9push_backIRKcEEvOT_.exit.i.i16: ; preds = %37, %33, %31, %.lr.ph.i.i14
  %39 = phi i32 [ %.pre.i.i.i21, %37 ], [ %.pre2.i.i.i20, %33 ], [ %28, %31 ], [ %28, %.lr.ph.i.i14 ]
  %40 = load ptr, ptr %27, align 8
  %41 = add nsw i32 %39, 1
  store i32 %41, ptr %0, align 8
  %42 = sext i32 %39 to i64
  %43 = getelementptr inbounds i8, ptr %40, i64 %42
  store i8 45, ptr %43, align 1
  %44 = sub nsw i64 0, %1
  br label %.lr.ph.i.i24

.lr.ph.i.i24:                                     ; preds = %24, %_ZN4pkpy10pod_vectorIcLi2EE9push_backIRKcEEvOT_.exit.i.i16
  %.0 = phi i64 [ %44, %_ZN4pkpy10pod_vectorIcLi2EE9push_backIRKcEEvOT_.exit.i.i16 ], [ %1, %24 ]
  %45 = getelementptr inbounds i8, ptr %0, i64 4
  %46 = getelementptr inbounds i8, ptr %0, i64 8
  br label %47

47:                                               ; preds = %_ZN4pkpy10pod_vectorIcLi2EE9push_backIRKcEEvOT_.exit.i.i26, %.lr.ph.i.i24
  %.07.i.i25.idx = phi i64 [ 0, %.lr.ph.i.i24 ], [ %.07.i.i25.add, %_ZN4pkpy10pod_vectorIcLi2EE9push_backIRKcEEvOT_.exit.i.i26 ]
  %.07.i.i25.ptr = getelementptr inbounds i8, ptr @.str.19, i64 %.07.i.i25.idx
  %48 = load i32, ptr %0, align 8
  %49 = load i32, ptr %45, align 4
  %50 = icmp eq i32 %48, %49
  br i1 %50, label %51, label %_ZN4pkpy10pod_vectorIcLi2EE9push_backIRKcEEvOT_.exit.i.i26

51:                                               ; preds = %47
  %52 = shl nsw i32 %48, 1
  %.not.i.i.i.i28 = icmp slt i32 %48, %52
  br i1 %.not.i.i.i.i28, label %53, label %_ZN4pkpy10pod_vectorIcLi2EE9push_backIRKcEEvOT_.exit.i.i26

53:                                               ; preds = %51
  store i32 %52, ptr %45, align 4
  %54 = load ptr, ptr %46, align 8
  %55 = sext i32 %52 to i64
  %56 = tail call noundef ptr @_ZN4pkpy12pool64_allocEm(i64 noundef %55) #23
  store ptr %56, ptr %46, align 8
  %.not6.i.i.i.i29 = icmp eq ptr %54, null
  %.pre2.i.i.i30 = load i32, ptr %0, align 8
  br i1 %.not6.i.i.i.i29, label %_ZN4pkpy10pod_vectorIcLi2EE9push_backIRKcEEvOT_.exit.i.i26, label %57

57:                                               ; preds = %53
  %58 = sext i32 %.pre2.i.i.i30 to i64
  tail call void @llvm.memcpy.p0.p0.i64(ptr align 1 %56, ptr nonnull align 1 %54, i64 %58, i1 false)
  tail call void @_ZN4pkpy14pool64_deallocEPv(ptr noundef nonnull %54) #23
  %.pre.i.i.i31 = load i32, ptr %0, align 8
  br label %_ZN4pkpy10pod_vectorIcLi2EE9push_backIRKcEEvOT_.exit.i.i26

_ZN4pkpy10pod_vectorIcLi2EE9push_backIRKcEEvOT_.exit.i.i26: ; preds = %57, %53, %51, %47
  %59 = phi i32 [ %.pre.i.i.i31, %57 ], [ %.pre2.i.i.i30, %53 ], [ %48, %51 ], [ %48, %47 ]
  %60 = load i8, ptr %.07.i.i25.ptr, align 1
  %61 = load ptr, ptr %46, align 8
  %62 = add nsw i32 %59, 1
  store i32 %62, ptr %0, align 8
  %63 = sext i32 %59 to i64
  %64 = getelementptr inbounds i8, ptr %61, i64 %63
  store i8 %60, ptr %64, align 1
  %.07.i.i25.add = add nuw nsw i64 %.07.i.i25.idx, 1
  %.not.i.i27 = icmp eq i64 %.07.i.i25.add, 2
  br i1 %.not.i.i27, label %_ZN4pkpy7SStreamlsEPKc.exit32, label %47, !llvm.loop !51

_ZN4pkpy7SStreamlsEPKc.exit32:                    ; preds = %_ZN4pkpy10pod_vectorIcLi2EE9push_backIRKcEEvOT_.exit.i.i26, %_ZN4pkpy7SStreamlsEPKc.exit32
  %indvars.iv = phi i64 [ %indvars.iv.next, %_ZN4pkpy7SStreamlsEPKc.exit32 ], [ 56, %_ZN4pkpy10pod_vectorIcLi2EE9push_backIRKcEEvOT_.exit.i.i26 ]
  %.01134 = phi i1 [ %spec.select, %_ZN4pkpy7SStreamlsEPKc.exit32 ], [ true, %_ZN4pkpy10pod_vectorIcLi2EE9push_backIRKcEEvOT_.exit.i.i26 ]
  %65 = lshr i64 %.0, %indvars.iv
  %66 = trunc i64 %65 to i8
  tail call void @_ZN4pkpy7SStream9write_hexEhb(ptr noundef nonnull align 8 dereferenceable(20) %0, i8 noundef zeroext %66, i1 noundef zeroext %.01134)
  %67 = and i64 %65, 255
  %.not = icmp eq i64 %67, 0
  %spec.select = and i1 %.not, %.01134
  %indvars.iv.next = add nsw i64 %indvars.iv, -8
  %.not37 = icmp eq i64 %indvars.iv, 0
  br i1 %.not37, label %_ZN4pkpy7SStreamlsEPKc.exit, label %_ZN4pkpy7SStreamlsEPKc.exit32, !llvm.loop !93

_ZN4pkpy7SStreamlsEPKc.exit:                      ; preds = %_ZN4pkpy7SStreamlsEPKc.exit32, %_ZN4pkpy10pod_vectorIcLi2EE9push_backIRKcEEvOT_.exit.i.i
  ret void
}